; Function Attrs: mustprogress nofree norecurse nosync nounwind memory(write, argmem: readwrite, inaccessiblemem: none) uwtable
define dso_local noundef zeroext i1 @_ZN4absl12log_internal11Encode64BitEmmPNS_4SpanIcEE(i64 noundef %0, i64 noundef %1, ptr noundef captures(none) %2) local_unnamed_addr #0 {
  %4 = shl i64 %0, 3
  %5 = or disjoint i64 %4, 1
  %6 = icmp ult i64 %4, 128
  br i1 %6, label %_ZN4absl12log_internal10VarintSizeEm.exit, label %tailrecurse.i

tailrecurse.i:                                    ; preds = %3, %tailrecurse.i
  %.tr3.i = phi i64 [ %7, %tailrecurse.i ], [ %5, %3 ]
  %accumulator.tr2.i = phi i64 [ %8, %tailrecurse.i ], [ 0, %3 ]
  %7 = lshr i64 %.tr3.i, 7
  %8 = add nuw nsw i64 %accumulator.tr2.i, 1
  %9 = icmp ult i64 %.tr3.i, 16384
  br i1 %9, label %tailrecurse._crit_edge.loopexit.i, label %tailrecurse.i

tailrecurse._crit_edge.loopexit.i:                ; preds = %tailrecurse.i
  %10 = add nuw i64 %accumulator.tr2.i, 2
  br label %_ZN4absl12log_internal10VarintSizeEm.exit

_ZN4absl12log_internal10VarintSizeEm.exit:        ; preds = %3, %tailrecurse._crit_edge.loopexit.i
  %accumulator.tr.lcssa.i = phi i64 [ 1, %3 ], [ %10, %tailrecurse._crit_edge.loopexit.i ]
  %11 = add i64 %accumulator.tr.lcssa.i, 8
  %12 = getelementptr inbounds nuw i8, ptr %2, i64 8
  %13 = load i64, ptr %12, align 8, !tbaa !4
  %14 = icmp ule i64 %11, %13
  br i1 %14, label %.lr.ph.i, label %39

.lr.ph.i:                                         ; preds = %_ZN4absl12log_internal10VarintSizeEm.exit, %.lr.ph.i
  %.013.i = phi i64 [ %16, %.lr.ph.i ], [ 0, %_ZN4absl12log_internal10VarintSizeEm.exit ]
  %.01012.i = phi i64 [ %23, %.lr.ph.i ], [ %5, %_ZN4absl12log_internal10VarintSizeEm.exit ]
  %15 = and i64 %.01012.i, 127
  %16 = add nuw nsw i64 %.013.i, 1
  %17 = icmp eq i64 %16, %accumulator.tr.lcssa.i
  %18 = select i1 %17, i64 0, i64 128
  %19 = or disjoint i64 %18, %15
  %20 = trunc nuw i64 %19 to i8
  %21 = load ptr, ptr %2, align 8, !tbaa !11
  %22 = getelementptr inbounds nuw i8, ptr %21, i64 %.013.i
  store i8 %20, ptr %22, align 1, !tbaa !12
  %23 = lshr i64 %.01012.i, 7
  br i1 %17, label %_ZN4absl12log_internal12_GLOBAL__N_115EncodeRawVarintEmmPNS_4SpanIcEE.exit, label %.lr.ph.i, !llvm.loop !13

_ZN4absl12log_internal12_GLOBAL__N_115EncodeRawVarintEmmPNS_4SpanIcEE.exit: ; preds = %.lr.ph.i
  %24 = load ptr, ptr %2, align 8, !tbaa !11
  %25 = getelementptr inbounds nuw i8, ptr %24, i64 %accumulator.tr.lcssa.i
  store ptr %25, ptr %2, align 8, !tbaa !11
  %26 = load i64, ptr %12, align 8, !tbaa !4
  %27 = sub i64 %26, %accumulator.tr.lcssa.i
  store i64 %27, ptr %12, align 8, !tbaa !4
  br label %33

28:                                               ; preds = %33
  %29 = load ptr, ptr %2, align 8, !tbaa !11
  %30 = getelementptr inbounds nuw i8, ptr %29, i64 8
  store ptr %30, ptr %2, align 8, !tbaa !11
  %31 = load i64, ptr %12, align 8, !tbaa !4
  %32 = add i64 %31, -8
  br label %39

33:                                               ; preds = %_ZN4absl12log_internal12_GLOBAL__N_115EncodeRawVarintEmmPNS_4SpanIcEE.exit, %33
  %.019 = phi i64 [ 0, %_ZN4absl12log_internal12_GLOBAL__N_115EncodeRawVarintEmmPNS_4SpanIcEE.exit ], [ %38, %33 ]
  %.01718 = phi i64 [ %1, %_ZN4absl12log_internal12_GLOBAL__N_115EncodeRawVarintEmmPNS_4SpanIcEE.exit ], [ %37, %33 ]
  %34 = trunc i64 %.01718 to i8
  %35 = load ptr, ptr %2, align 8, !tbaa !11
  %36 = getelementptr inbounds nuw i8, ptr %35, i64 %.019
  store i8 %34, ptr %36, align 1, !tbaa !12
  %37 = lshr i64 %.01718, 8
  %38 = add nuw nsw i64 %.019, 1
  %exitcond.not = icmp eq i64 %38, 8
  br i1 %exitcond.not, label %28, label %33, !llvm.loop !15

39:                                               ; preds = %_ZN4absl12log_internal10VarintSizeEm.exit, %28
  %storemerge = phi i64 [ %32, %28 ], [ 0, %_ZN4absl12log_internal10VarintSizeEm.exit ]
  store i64 %storemerge, ptr %12, align 8, !tbaa !4
  ret i1 %14
}